; Function Attrs: mustprogress nofree nounwind willreturn uwtable
define hidden noundef range(i32 -3, 1) i32 @_ZN9Arguments17parse_memory_sizeEPKcPmmm(ptr noundef %0, ptr nocapture noundef %1, i64 noundef %2, i64 noundef %3) local_unnamed_addr #9 align 2 {
  %5 = tail call fastcc noundef zeroext i1 @_ZL13parse_integerImEbPKcPT_(ptr noundef %0, ptr noundef %1)
  br i1 %5, label %6, label %10

6:                                                ; preds = %4
  %7 = load i64, ptr %1, align 8
  %8 = icmp ult i64 %7, %2
  %9 = icmp ugt i64 %7, %3
  %..i = sext i1 %9 to i32
  %.0.i = select i1 %8, i32 -2, i32 %..i
  br label %10

10:                                               ; preds = %4, %6
  %.0 = phi i32 [ %.0.i, %6 ], [ -3, %4 ]
  ret i32 %.0
}